target datalayout = "e-m:e-p270:32:32-p271:32:32-p272:64:64-i64:64-i128:128-f80:128-n8:16:32:64-S128"
target triple = "x86_64-pc-linux-gnu"

%"class.sat::literal" = type { i32 }
%"class.pb::pbc" = type <{ %"class.pb::constraint", i32, i32, i32, [0 x %"struct.std::pair"], [4 x i8] }>
%"class.pb::constraint" = type { ptr, i32, i8, %"class.sat::literal", %"class.sat::literal", i32, i32, i32, i64, i8, i32, i8, i32 }
%"struct.std::pair" = type { i32, %"class.sat::literal" }
%class.vector.1 = type { ptr }

; Function Attrs: inlinehint mustprogress nounwind uwtable
define linkonce_odr hidden noundef i32 @_Zco5lbool(i32 noundef %0) #8 comdat {
  %2 = alloca i32, align 4
  store i32 %0, ptr %2, align 4, !tbaa !94
  %3 = load i32, ptr %2, align 4, !tbaa !94
  %4 = sub nsw i32 0, %3
  ret i32 %4
}

; Function Attrs: mustprogress nounwind uwtable
define linkonce_odr hidden noundef nonnull align 4 dereferenceable(4) ptr @_ZNK6vectorI5lboolLb0EjEixEj(ptr noundef nonnull align 8 dereferenceable(8) %0, i32 noundef %1) #4 comdat align 2 {
  %3 = alloca ptr, align 8
  %4 = alloca i32, align 4
  store ptr %0, ptr %3, align 8, !tbaa !132
  store i32 %1, ptr %4, align 4, !tbaa !10
  %5 = load ptr, ptr %3, align 8
  %6 = getelementptr inbounds nuw %class.vector.1, ptr %5, i32 0, i32 0
  %7 = load ptr, ptr %6, align 8, !tbaa !134
  %8 = load i32, ptr %4, align 4, !tbaa !10
  %9 = zext i32 %8 to i64
  %10 = getelementptr inbounds nuw i32, ptr %7, i64 %9
  ret ptr %10
}

; Function Attrs: mustprogress nounwind uwtable
define linkonce_odr hidden noundef i32 @_ZNK3sat7literal3varEv(ptr noundef nonnull align 4 dereferenceable(4) %0) #4 comdat align 2 {
  %2 = alloca ptr, align 8
  store ptr %0, ptr %2, align 8, !tbaa !61
  %3 = load ptr, ptr %2, align 8
  %4 = getelementptr inbounds nuw %"class.sat::literal", ptr %3, i32 0, i32 0
  %5 = load i32, ptr %4, align 4, !tbaa !63
  %6 = lshr i32 %5, 1
  ret i32 %6
}

; Function Attrs: mustprogress nounwind uwtable
define linkonce_odr hidden noundef zeroext i1 @_ZNK3sat7literal4signEv(ptr noundef nonnull align 4 dereferenceable(4) %0) #4 comdat align 2 {
  %2 = alloca ptr, align 8
  store ptr %0, ptr %2, align 8, !tbaa !61
  %3 = load ptr, ptr %2, align 8
  %4 = getelementptr inbounds nuw %"class.sat::literal", ptr %3, i32 0, i32 0
  %5 = load i32, ptr %4, align 4, !tbaa !63
  %6 = zext i32 %5 to i64
  %7 = and i64 %6, 1
  %8 = icmp ne i64 %7, 0
  ret i1 %8
}

; Function Attrs: mustprogress nounwind uwtable
define linkonce_odr hidden noundef i32 @_ZNK2pb10constraint1kEv(ptr noundef nonnull align 8 dereferenceable(64) %0) #4 comdat align 2 {
  %2 = alloca ptr, align 8
  store ptr %0, ptr %2, align 8, !tbaa !3
  %3 = load ptr, ptr %2, align 8
  %4 = getelementptr inbounds nuw %"class.pb::constraint", ptr %3, i32 0, i32 12
  %5 = load i32, ptr %4, align 4, !tbaa !46
  ret i32 %5
}

; Function Attrs: inlinehint mustprogress uwtable
define linkonce_odr hidden noundef i32 @_ZN2pb5valueERK7svectorI5lbooljEN3sat7literalE(ptr noundef nonnull align 8 dereferenceable(8) %0, i32 %1) #9 comdat {
  %3 = alloca %"class.sat::literal", align 4
  %4 = alloca ptr, align 8
  %5 = getelementptr inbounds nuw %"class.sat::literal", ptr %3, i32 0, i32 0
  store i32 %1, ptr %5, align 4
  store ptr %0, ptr %4, align 8, !tbaa !96
  %6 = call noundef zeroext i1 @_ZNK3sat7literal4signEv(ptr noundef nonnull align 4 dereferenceable(4) %3)
  br i1 %6, label %7, label %13

7:                                                ; preds = %2
  %8 = load ptr, ptr %4, align 8, !tbaa !96
  %9 = call noundef i32 @_ZNK3sat7literal3varEv(ptr noundef nonnull align 4 dereferenceable(4) %3)
  %10 = call noundef nonnull align 4 dereferenceable(4) ptr @_ZNK6vectorI5lboolLb0EjEixEj(ptr noundef nonnull align 8 dereferenceable(8) %8, i32 noundef %9)
  %11 = load i32, ptr %10, align 4, !tbaa !94
  %12 = call noundef i32 @_Zco5lbool(i32 noundef %11)
  br label %18

13:                                               ; preds = %2
  %14 = load ptr, ptr %4, align 8, !tbaa !96
  %15 = call noundef i32 @_ZNK3sat7literal3varEv(ptr noundef nonnull align 4 dereferenceable(4) %3)
  %16 = call noundef nonnull align 4 dereferenceable(4) ptr @_ZNK6vectorI5lboolLb0EjEixEj(ptr noundef nonnull align 8 dereferenceable(8) %14, i32 noundef %15)
  %17 = load i32, ptr %16, align 4, !tbaa !94
  br label %18

18:                                               ; preds = %13, %7
  %19 = phi i32 [ %12, %7 ], [ %17, %13 ]
  ret i32 %19
}

; Function Attrs: mustprogress nounwind uwtable
define linkonce_odr hidden noundef ptr @_ZNK2pb3pbc3endEv(ptr noundef nonnull align 8 dereferenceable(76) %0) #4 comdat align 2 {
  %2 = alloca ptr, align 8
  store ptr %0, ptr %2, align 8, !tbaa !8
  %3 = load ptr, ptr %2, align 8
  %4 = call noundef ptr @_ZNK2pb3pbc5beginEv(ptr noundef nonnull align 8 dereferenceable(76) %3)
  %5 = getelementptr inbounds nuw %"class.pb::constraint", ptr %3, i32 0, i32 7
  %6 = load i32, ptr %5, align 8, !tbaa !41
  %7 = zext i32 %6 to i64
  %8 = getelementptr inbounds nuw %"struct.std::pair", ptr %4, i64 %7
  ret ptr %8
}

; Function Attrs: mustprogress nounwind uwtable
define linkonce_odr hidden noundef ptr @_ZNK2pb3pbc5beginEv(ptr noundef nonnull align 8 dereferenceable(76) %0) #4 comdat align 2 {
  %2 = alloca ptr, align 8
  store ptr %0, ptr %2, align 8, !tbaa !8
  %3 = load ptr, ptr %2, align 8
  %4 = getelementptr inbounds nuw %"class.pb::pbc", ptr %3, i32 0, i32 4
  %5 = getelementptr inbounds [0 x %"struct.std::pair"], ptr %4, i64 0, i64 0
  ret ptr %5
}

; Function Attrs: mustprogress uwtable
define hidden noundef i32 @_ZNK2pb3pbc4evalERK7svectorI5lbooljE(ptr noundef nonnull align 8 dereferenceable(76) %0, ptr noundef nonnull align 8 dereferenceable(8) %1) unnamed_addr #5 align 2 {
  %3 = alloca i32, align 4
  %4 = alloca ptr, align 8
  %5 = alloca ptr, align 8
  %6 = alloca ptr, align 8
  %7 = alloca i32, align 4
  %8 = alloca i32, align 4
  %9 = alloca ptr, align 8
  %10 = alloca ptr, align 8
  %11 = alloca ptr, align 8
  %12 = alloca %"struct.std::pair", align 4
  %13 = alloca %"class.sat::literal", align 4
  %14 = alloca i32, align 4
  store ptr %0, ptr %4, align 8, !tbaa !8
  store ptr %1, ptr %5, align 8, !tbaa !96
  %15 = load ptr, ptr %4, align 8
  call void @llvm.lifetime.start.p0(i64 8, ptr %6) #3
  store ptr %15, ptr %6, align 8, !tbaa !8
  call void @llvm.lifetime.start.p0(i64 4, ptr %7) #3
  store i32 0, ptr %7, align 4, !tbaa !10
  call void @llvm.lifetime.start.p0(i64 4, ptr %8) #3
  store i32 0, ptr %8, align 4, !tbaa !10
  call void @llvm.lifetime.start.p0(i64 8, ptr %9) #3
  %16 = load ptr, ptr %6, align 8, !tbaa !8
  store ptr %16, ptr %9, align 8, !tbaa !8
  call void @llvm.lifetime.start.p0(i64 8, ptr %10) #3
  %17 = load ptr, ptr %9, align 8, !tbaa !8
  %18 = call noundef ptr @_ZNK2pb3pbc5beginEv(ptr noundef nonnull align 8 dereferenceable(76) %17)
  store ptr %18, ptr %10, align 8, !tbaa !47
  call void @llvm.lifetime.start.p0(i64 8, ptr %11) #3
  %19 = load ptr, ptr %9, align 8, !tbaa !8
  %20 = call noundef ptr @_ZNK2pb3pbc3endEv(ptr noundef nonnull align 8 dereferenceable(76) %19)
  store ptr %20, ptr %11, align 8, !tbaa !47
  br label %21

21:                                               ; preds = %45, %2
  %22 = load ptr, ptr %10, align 8, !tbaa !47
  %23 = load ptr, ptr %11, align 8, !tbaa !47
  %24 = icmp ne ptr %22, %23
  br i1 %24, label %26, label %25

25:                                               ; preds = %21
  call void @llvm.lifetime.end.p0(i64 8, ptr %11) #3
  call void @llvm.lifetime.end.p0(i64 8, ptr %10) #3
  call void @llvm.lifetime.end.p0(i64 8, ptr %9) #3
  br label %48

26:                                               ; preds = %21
  call void @llvm.lifetime.start.p0(i64 8, ptr %12) #3
  %27 = load ptr, ptr %10, align 8, !tbaa !47
  call void @llvm.memcpy.p0.p0.i64(ptr align 4 %12, ptr align 4 %27, i64 8, i1 false)
  %28 = load ptr, ptr %5, align 8, !tbaa !96
  %29 = getelementptr inbounds nuw %"struct.std::pair", ptr %12, i32 0, i32 1
  call void @llvm.memcpy.p0.p0.i64(ptr align 4 %13, ptr align 4 %29, i64 4, i1 false), !tbaa.struct !14
  %30 = getelementptr inbounds nuw %"class.sat::literal", ptr %13, i32 0, i32 0
  %31 = load i32, ptr %30, align 4
  %32 = call noundef i32 @_ZN2pb5valueERK7svectorI5lbooljEN3sat7literalE(ptr noundef nonnull align 8 dereferenceable(8) %28, i32 %31)
  switch i32 %32, label %43 [
    i32 1, label %33
    i32 0, label %38
  ]

33:                                               ; preds = %26
  %34 = getelementptr inbounds nuw %"struct.std::pair", ptr %12, i32 0, i32 0
  %35 = load i32, ptr %34, align 4, !tbaa !26
  %36 = load i32, ptr %7, align 4, !tbaa !10
  %37 = add i32 %36, %35
  store i32 %37, ptr %7, align 4, !tbaa !10
  br label %44

38:                                               ; preds = %26
  %39 = getelementptr inbounds nuw %"struct.std::pair", ptr %12, i32 0, i32 0
  %40 = load i32, ptr %39, align 4, !tbaa !26
  %41 = load i32, ptr %8, align 4, !tbaa !10
  %42 = add i32 %41, %40
  store i32 %42, ptr %8, align 4, !tbaa !10
  br label %44

43:                                               ; preds = %26
  br label %44

44:                                               ; preds = %43, %38, %33
  call void @llvm.lifetime.end.p0(i64 8, ptr %12) #3
  br label %45

45:                                               ; preds = %44
  %46 = load ptr, ptr %10, align 8, !tbaa !47
  %47 = getelementptr inbounds nuw %"struct.std::pair", ptr %46, i32 1
  store ptr %47, ptr %10, align 8, !tbaa !47
  br label %21

48:                                               ; preds = %25
  %49 = load i32, ptr %7, align 4, !tbaa !10
  %50 = load i32, ptr %8, align 4, !tbaa !10
  %51 = add i32 %49, %50
  %52 = load ptr, ptr %6, align 8, !tbaa !8
  %53 = call noundef i32 @_ZNK2pb10constraint1kEv(ptr noundef nonnull align 8 dereferenceable(64) %52)
  %54 = icmp ult i32 %51, %53
  br i1 %54, label %55, label %56

55:                                               ; preds = %48
  store i32 -1, ptr %3, align 4
  store i32 1, ptr %14, align 4
  br label %63

56:                                               ; preds = %48
  %57 = load i32, ptr %7, align 4, !tbaa !10
  %58 = load ptr, ptr %6, align 8, !tbaa !8
  %59 = call noundef i32 @_ZNK2pb10constraint1kEv(ptr noundef nonnull align 8 dereferenceable(64) %58)
  %60 = icmp uge i32 %57, %59
  br i1 %60, label %61, label %62

61:                                               ; preds = %56
  store i32 1, ptr %3, align 4
  store i32 1, ptr %14, align 4
  br label %63

62:                                               ; preds = %56
  store i32 0, ptr %3, align 4
  store i32 1, ptr %14, align 4
  br label %63

63:                                               ; preds = %62, %61, %55
  call void @llvm.lifetime.end.p0(i64 4, ptr %8) #3
  call void @llvm.lifetime.end.p0(i64 4, ptr %7) #3
  call void @llvm.lifetime.end.p0(i64 8, ptr %6) #3
  %64 = load i32, ptr %3, align 4
  ret i32 %64
}