; Function Attrs: mustprogress nofree norecurse nosync nounwind willreturn memory(read, inaccessiblemem: none) uwtable
define hidden noundef range(i32 -1, 2) i32 @_ZNK2pb3pbc4evalERK7svectorI5lbooljE(ptr noundef nonnull readonly align 8 captures(address) dereferenceable(76) %0, ptr noundef nonnull readonly align 8 captures(none) dereferenceable(8) %1) unnamed_addr #10 align 2 {
  %3 = getelementptr inbounds nuw i8, ptr %0, i64 32
  %4 = load i32, ptr %3, align 8, !tbaa !20
  %5 = zext i32 %4 to i64
  %.idx = shl nuw nsw i64 %5, 3
  %6 = getelementptr inbounds nuw i8, ptr %0, i64 %.idx
  %.ptr28 = getelementptr inbounds nuw i8, ptr %6, i64 76
  %.not23 = icmp eq i32 %4, 0
  br i1 %.not23, label %._crit_edge, label %.lr.ph

.lr.ph:                                           ; preds = %2
  %.ptr = getelementptr inbounds nuw i8, ptr %0, i64 76
  %7 = load ptr, ptr %1, align 8, !tbaa !68
  br label %12

._crit_edge:                                      ; preds = %24, %2
  %.019.lcssa = phi i32 [ 0, %2 ], [ %.120, %24 ]
  %.018.lcssa = phi i32 [ 0, %2 ], [ %.1, %24 ]
  %8 = add i32 %.018.lcssa, %.019.lcssa
  %9 = getelementptr inbounds nuw i8, ptr %0, i64 60
  %10 = load i32, ptr %9, align 4, !tbaa !25
  %11 = icmp ult i32 %8, %10
  %.not22 = icmp uge i32 %.018.lcssa, %10
  %. = zext i1 %.not22 to i32
  %.0 = select i1 %11, i32 -1, i32 %.
  ret i32 %.0

12:                                               ; preds = %.lr.ph, %24
  %.01826 = phi i32 [ 0, %.lr.ph ], [ %.1, %24 ]
  %.01925 = phi i32 [ 0, %.lr.ph ], [ %.120, %24 ]
  %.02124 = phi ptr [ %.ptr, %.lr.ph ], [ %25, %24 ]
  %.sroa.01.0.copyload = load i32, ptr %.02124, align 4
  %.sroa.5.0..sroa_idx = getelementptr inbounds nuw i8, ptr %.02124, i64 4
  %.sroa.5.0.copyload = load i32, ptr %.sroa.5.0..sroa_idx, align 4
  %13 = and i32 %.sroa.5.0.copyload, 1
  %.not.i = icmp eq i32 %13, 0
  %14 = lshr i32 %.sroa.5.0.copyload, 1
  %15 = zext nneg i32 %14 to i64
  %16 = getelementptr inbounds nuw i32, ptr %7, i64 %15
  %17 = load i32, ptr %16, align 4, !tbaa !70
  %18 = sub nsw i32 0, %17
  %19 = select i1 %.not.i, i32 %17, i32 %18
  switch i32 %19, label %24 [
    i32 1, label %20
    i32 0, label %22
  ]

20:                                               ; preds = %12
  %21 = add i32 %.sroa.01.0.copyload, %.01826
  br label %24

22:                                               ; preds = %12
  %23 = add i32 %.sroa.01.0.copyload, %.01925
  br label %24

24:                                               ; preds = %12, %22, %20
  %.120 = phi i32 [ %.01925, %12 ], [ %23, %22 ], [ %.01925, %20 ]
  %.1 = phi i32 [ %.01826, %12 ], [ %.01826, %22 ], [ %21, %20 ]
  %25 = getelementptr inbounds nuw i8, ptr %.02124, i64 8
  %.not = icmp eq ptr %25, %.ptr28
  br i1 %.not, label %._crit_edge, label %12
}